; Function Attrs: mustprogress uwtable
define noundef zeroext i8 @_ZN10open_spiel10phantom_go8OppColorENS0_7GoColorE(i8 noundef zeroext %0) local_unnamed_addr #8 personality ptr @__gxx_personality_v0 {
  %2 = alloca %"class.std::__cxx11::basic_string", align 8
  %3 = alloca %"class.absl::debian2::AlphaNum", align 8
  %4 = alloca %"class.absl::debian2::AlphaNum", align 8
  %5 = alloca %"class.absl::debian2::AlphaNum", align 8
  %6 = icmp ult i8 %0, 4
  br i1 %6, label %switch.lookup, label %_ZN4absl7debian28AlphaNumC2EPKc.exit

_ZN4absl7debian28AlphaNumC2EPKc.exit:             ; preds = %1
  store ptr @.str.1, ptr %3, align 8
  %7 = getelementptr inbounds nuw i8, ptr %3, i64 8
  store i64 14, ptr %7, align 8
  %8 = zext i8 %0 to i32
  %9 = getelementptr inbounds nuw i8, ptr %4, i64 16
  %10 = call noundef ptr @_ZN4absl7debian216numbers_internal15FastIntToBufferEiPc(i32 noundef %8, ptr noundef nonnull %9)
  %11 = ptrtoint ptr %10 to i64
  %12 = ptrtoint ptr %9 to i64
  %13 = sub i64 %11, %12
  store ptr %9, ptr %4, align 8
  %14 = icmp sgt i64 %13, -1
  br i1 %14, label %_ZN4absl7debian28AlphaNumC2IN10open_spiel10phantom_go7GoColorEvEET_.exit, label %15

15:                                               ; preds = %_ZN4absl7debian28AlphaNumC2EPKc.exit
  call void @llvm.trap()
  unreachable

_ZN4absl7debian28AlphaNumC2IN10open_spiel10phantom_go7GoColorEvEET_.exit: ; preds = %_ZN4absl7debian28AlphaNumC2EPKc.exit
  %16 = getelementptr inbounds nuw i8, ptr %4, i64 8
  store i64 %13, ptr %16, align 8
  store ptr @.str.2, ptr %5, align 8
  %17 = getelementptr inbounds nuw i8, ptr %5, i64 8
  store i64 13, ptr %17, align 8
  call void @_ZN4absl7debian26StrCatB5cxx11ERKNS0_8AlphaNumES3_S3_(ptr dead_on_unwind nonnull writable sret(%"class.std::__cxx11::basic_string") align 8 %2, ptr noundef nonnull align 8 dereferenceable(48) %3, ptr noundef nonnull align 8 dereferenceable(48) %4, ptr noundef nonnull align 8 dereferenceable(48) %5)
  invoke void @_ZN10open_spiel15SpielFatalErrorERKNSt7__cxx1112basic_stringIcSt11char_traitsIcESaIcEEE(ptr noundef nonnull align 8 dereferenceable(32) %2) #27
          to label %18 unwind label %19

18:                                               ; preds = %_ZN4absl7debian28AlphaNumC2IN10open_spiel10phantom_go7GoColorEvEET_.exit
  unreachable

19:                                               ; preds = %_ZN4absl7debian28AlphaNumC2IN10open_spiel10phantom_go7GoColorEvEET_.exit
  %20 = landingpad { ptr, i32 }
          cleanup
  call void @_ZNSt7__cxx1112basic_stringIcSt11char_traitsIcESaIcEED1Ev(ptr noundef nonnull align 8 dereferenceable(32) %2) #26
  resume { ptr, i32 } %20

switch.lookup:                                    ; preds = %1
  %21 = shl nuw nsw i8 %0, 3
  %switch.shiftamt = zext nneg i8 %21 to i32
  %switch.downshift = lshr i32 50462721, %switch.shiftamt
  %switch.masked = trunc i32 %switch.downshift to i8
  ret i8 %switch.masked
}